target datalayout = "e-m:e-p270:32:32-p271:32:32-p272:64:64-i64:64-i128:128-f80:128-n8:16:32:64-S128"
target triple = "x86_64-pc-linux-gnu"

%"class.llvm::MCExpr" = type <{ i8, i32, [3 x i8], %"class.llvm::SMLoc" }>
%"class.llvm::SMLoc" = type { ptr }
%"class.llvm::MCSymbolRefExpr" = type { %"class.llvm::MCExpr", ptr }
%"class.llvm::MCSymbol" = type { ptr, i64, i32, %union.anon }
%union.anon = type { i64 }
%"class.llvm::MCUnaryExpr" = type { %"class.llvm::MCExpr", ptr }
%"class.llvm::MCBinaryExpr" = type { %"class.llvm::MCExpr", ptr, ptr }

@_ZN4llvm8MCSymbol22AbsolutePseudoFragmentE = external global ptr, align 8

; Function Attrs: mustprogress nounwind uwtable
define linkonce_odr hidden noundef ptr @_ZN4llvm16cast_convert_valINS_12MCBinaryExprEPKNS_6MCExprES4_E4doitES4_(ptr noundef %0) #1 comdat align 2 {
  %2 = alloca ptr, align 8
  store ptr %0, ptr %2, align 8
  %3 = load ptr, ptr %2, align 8
  ret ptr %3
}

; Function Attrs: mustprogress nounwind uwtable
define linkonce_odr hidden noundef ptr @_ZN4llvm16cast_convert_valINS_11MCUnaryExprEPKNS_6MCExprES4_E4doitES4_(ptr noundef %0) #1 comdat align 2 {
  %2 = alloca ptr, align 8
  store ptr %0, ptr %2, align 8
  %3 = load ptr, ptr %2, align 8
  ret ptr %3
}

; Function Attrs: mustprogress nounwind uwtable
define linkonce_odr hidden noundef ptr @_ZN4llvm16cast_convert_valINS_15MCSymbolRefExprEPKNS_6MCExprES4_E4doitES4_(ptr noundef %0) #1 comdat align 2 {
  %2 = alloca ptr, align 8
  store ptr %0, ptr %2, align 8
  %3 = load ptr, ptr %2, align 8
  ret ptr %3
}

; Function Attrs: mustprogress nounwind uwtable
define linkonce_odr hidden noundef ptr @_ZN4llvm16cast_convert_valINS_12MCTargetExprEPKNS_6MCExprES4_E4doitES4_(ptr noundef %0) #1 comdat align 2 {
  %2 = alloca ptr, align 8
  store ptr %0, ptr %2, align 8
  %3 = load ptr, ptr %2, align 8
  %4 = icmp eq ptr %3, null
  br i1 %4, label %7, label %5

5:                                                ; preds = %1
  %6 = getelementptr inbounds i8, ptr %3, i64 -8
  br label %8

7:                                                ; preds = %1
  br label %8

8:                                                ; preds = %7, %5
  %9 = phi ptr [ %6, %5 ], [ null, %7 ]
  ret ptr %9
}

; Function Attrs: mustprogress nounwind uwtable
define linkonce_odr hidden noundef i32 @_ZNK4llvm6MCExpr15getSubclassDataEv(ptr noundef nonnull align 8 dereferenceable(16) %0) #1 comdat align 2 {
  %2 = alloca ptr, align 8
  store ptr %0, ptr %2, align 8
  %3 = load ptr, ptr %2, align 8
  %4 = getelementptr inbounds nuw %"class.llvm::MCExpr", ptr %3, i32 0, i32 1
  %5 = load i32, ptr %4, align 1
  %6 = and i32 %5, 16777215
  ret i32 %6
}

; Function Attrs: mustprogress nounwind uwtable
define linkonce_odr hidden noundef ptr @_ZN4llvm8CastInfoINS_12MCBinaryExprEPKNS_6MCExprEvE6doCastERKS4_(ptr noundef nonnull align 8 dereferenceable(8) %0) #1 comdat align 2 {
  %2 = alloca ptr, align 8
  store ptr %0, ptr %2, align 8
  %3 = load ptr, ptr %2, align 8
  %4 = load ptr, ptr %3, align 8
  %5 = call noundef ptr @_ZN4llvm16cast_convert_valINS_12MCBinaryExprEPKNS_6MCExprES4_E4doitES4_(ptr noundef %4)
  ret ptr %5
}

; Function Attrs: mustprogress nounwind uwtable
define linkonce_odr hidden noundef ptr @_ZN4llvm8CastInfoINS_11MCUnaryExprEPKNS_6MCExprEvE6doCastERKS4_(ptr noundef nonnull align 8 dereferenceable(8) %0) #1 comdat align 2 {
  %2 = alloca ptr, align 8
  store ptr %0, ptr %2, align 8
  %3 = load ptr, ptr %2, align 8
  %4 = load ptr, ptr %3, align 8
  %5 = call noundef ptr @_ZN4llvm16cast_convert_valINS_11MCUnaryExprEPKNS_6MCExprES4_E4doitES4_(ptr noundef %4)
  ret ptr %5
}

; Function Attrs: mustprogress nounwind uwtable
define linkonce_odr hidden noundef ptr @_ZNK4llvm8MCSymbol16getVariableValueEb(ptr noundef nonnull align 8 dereferenceable(32) %0, i1 noundef zeroext %1) #1 comdat align 2 {
  %3 = alloca ptr, align 8
  %4 = alloca i8, align 1
  store ptr %0, ptr %3, align 8
  %5 = zext i1 %1 to i8
  store i8 %5, ptr %4, align 1
  %6 = load ptr, ptr %3, align 8
  %7 = load i8, ptr %4, align 1
  %8 = trunc i8 %7 to i1
  %9 = zext i1 %8 to i32
  %10 = getelementptr inbounds nuw %"class.llvm::MCSymbol", ptr %6, i32 0, i32 1
  %11 = load i64, ptr %10, align 8
  %12 = lshr i64 %11, 3
  %13 = and i64 %12, 1
  %14 = trunc i64 %13 to i32
  %15 = or i32 %14, %9
  %16 = zext i32 %15 to i64
  %17 = load i64, ptr %10, align 8
  %18 = and i64 %16, 1
  %19 = shl i64 %18, 3
  %20 = and i64 %17, -9
  %21 = or i64 %20, %19
  store i64 %21, ptr %10, align 8
  %22 = getelementptr inbounds nuw %"class.llvm::MCSymbol", ptr %6, i32 0, i32 3
  %23 = load ptr, ptr %22, align 8
  ret ptr %23
}

; Function Attrs: mustprogress nounwind uwtable
define linkonce_odr hidden noundef zeroext i1 @_ZNK4llvm8MCSymbol14isWeakExternalEv(ptr noundef nonnull align 8 dereferenceable(32) %0) #1 comdat align 2 {
  %2 = alloca ptr, align 8
  store ptr %0, ptr %2, align 8
  %3 = load ptr, ptr %2, align 8
  %4 = getelementptr inbounds nuw %"class.llvm::MCSymbol", ptr %3, i32 0, i32 1
  %5 = load i64, ptr %4, align 8
  %6 = lshr i64 %5, 7
  %7 = and i64 %6, 1
  %8 = trunc i64 %7 to i32
  %9 = icmp ne i32 %8, 0
  ret i1 %9
}

; Function Attrs: mustprogress nounwind uwtable
define linkonce_odr hidden noundef zeroext i1 @_ZNK4llvm8MCSymbol10isVariableEv(ptr noundef nonnull align 8 dereferenceable(32) %0) #1 comdat align 2 {
  %2 = alloca ptr, align 8
  store ptr %0, ptr %2, align 8
  %3 = load ptr, ptr %2, align 8
  %4 = getelementptr inbounds nuw %"class.llvm::MCSymbol", ptr %3, i32 0, i32 1
  %5 = load i64, ptr %4, align 8
  %6 = lshr i64 %5, 12
  %7 = and i64 %6, 7
  %8 = trunc i64 %7 to i32
  %9 = icmp eq i32 %8, 2
  ret i1 %9
}

; Function Attrs: mustprogress nounwind uwtable
define linkonce_odr hidden noundef ptr @_ZN4llvm8CastInfoINS_15MCSymbolRefExprEPKNS_6MCExprEvE6doCastERKS4_(ptr noundef nonnull align 8 dereferenceable(8) %0) #1 comdat align 2 {
  %2 = alloca ptr, align 8
  store ptr %0, ptr %2, align 8
  %3 = load ptr, ptr %2, align 8
  %4 = load ptr, ptr %3, align 8
  %5 = call noundef ptr @_ZN4llvm16cast_convert_valINS_15MCSymbolRefExprEPKNS_6MCExprES4_E4doitES4_(ptr noundef %4)
  ret ptr %5
}

; Function Attrs: mustprogress nounwind uwtable
define linkonce_odr hidden noundef ptr @_ZN4llvm8CastInfoINS_12MCTargetExprEPKNS_6MCExprEvE6doCastERKS4_(ptr noundef nonnull align 8 dereferenceable(8) %0) #1 comdat align 2 {
  %2 = alloca ptr, align 8
  store ptr %0, ptr %2, align 8
  %3 = load ptr, ptr %2, align 8
  %4 = load ptr, ptr %3, align 8
  %5 = call noundef ptr @_ZN4llvm16cast_convert_valINS_12MCTargetExprEPKNS_6MCExprES4_E4doitES4_(ptr noundef %4)
  ret ptr %5
}

; Function Attrs: mustprogress nounwind uwtable
define linkonce_odr hidden noundef i32 @_ZNK4llvm12MCBinaryExpr9getOpcodeEv(ptr noundef nonnull align 8 dereferenceable(32) %0) #1 comdat align 2 {
  %2 = alloca ptr, align 8
  store ptr %0, ptr %2, align 8
  %3 = load ptr, ptr %2, align 8
  %4 = call noundef i32 @_ZNK4llvm6MCExpr15getSubclassDataEv(ptr noundef nonnull align 8 dereferenceable(16) %3)
  ret i32 %4
}

; Function Attrs: mustprogress nounwind uwtable
define linkonce_odr hidden noundef ptr @_ZNK4llvm12MCBinaryExpr6getRHSEv(ptr noundef nonnull align 8 dereferenceable(32) %0) #1 comdat align 2 {
  %2 = alloca ptr, align 8
  store ptr %0, ptr %2, align 8
  %3 = load ptr, ptr %2, align 8
  %4 = getelementptr inbounds nuw %"class.llvm::MCBinaryExpr", ptr %3, i32 0, i32 2
  %5 = load ptr, ptr %4, align 8
  ret ptr %5
}

; Function Attrs: mustprogress nounwind uwtable
define linkonce_odr hidden noundef ptr @_ZNK4llvm12MCBinaryExpr6getLHSEv(ptr noundef nonnull align 8 dereferenceable(32) %0) #1 comdat align 2 {
  %2 = alloca ptr, align 8
  store ptr %0, ptr %2, align 8
  %3 = load ptr, ptr %2, align 8
  %4 = getelementptr inbounds nuw %"class.llvm::MCBinaryExpr", ptr %3, i32 0, i32 1
  %5 = load ptr, ptr %4, align 8
  ret ptr %5
}

; Function Attrs: mustprogress nounwind uwtable
define linkonce_odr hidden noundef ptr @_ZN4llvm4castINS_12MCBinaryExprEKNS_6MCExprEEEDcPT0_(ptr noundef %0) #1 comdat {
  %2 = alloca ptr, align 8
  store ptr %0, ptr %2, align 8
  %3 = call noundef ptr @_ZN4llvm8CastInfoINS_12MCBinaryExprEPKNS_6MCExprEvE6doCastERKS4_(ptr noundef nonnull align 8 dereferenceable(8) %2)
  ret ptr %3
}

; Function Attrs: mustprogress nounwind uwtable
define linkonce_odr hidden noundef ptr @_ZNK4llvm11MCUnaryExpr10getSubExprEv(ptr noundef nonnull align 8 dereferenceable(24) %0) #1 comdat align 2 {
  %2 = alloca ptr, align 8
  store ptr %0, ptr %2, align 8
  %3 = load ptr, ptr %2, align 8
  %4 = getelementptr inbounds nuw %"class.llvm::MCUnaryExpr", ptr %3, i32 0, i32 1
  %5 = load ptr, ptr %4, align 8
  ret ptr %5
}

; Function Attrs: mustprogress nounwind uwtable
define linkonce_odr hidden noundef ptr @_ZN4llvm4castINS_11MCUnaryExprEKNS_6MCExprEEEDcPT0_(ptr noundef %0) #1 comdat {
  %2 = alloca ptr, align 8
  store ptr %0, ptr %2, align 8
  %3 = call noundef ptr @_ZN4llvm8CastInfoINS_11MCUnaryExprEPKNS_6MCExprEvE6doCastERKS4_(ptr noundef nonnull align 8 dereferenceable(8) %2)
  ret ptr %3
}

; Function Attrs: mustprogress nounwind uwtable
define linkonce_odr hidden noundef ptr @_ZNK4llvm8MCSymbol11getFragmentEb(ptr noundef nonnull align 8 dereferenceable(32) %0, i1 noundef zeroext %1) #1 comdat align 2 {
  %3 = alloca ptr, align 8
  %4 = alloca ptr, align 8
  %5 = alloca i8, align 1
  store ptr %0, ptr %4, align 8
  %6 = zext i1 %1 to i8
  store i8 %6, ptr %5, align 1
  %7 = load ptr, ptr %4, align 8
  %8 = getelementptr inbounds nuw %"class.llvm::MCSymbol", ptr %7, i32 0, i32 0
  %9 = load ptr, ptr %8, align 8
  %10 = icmp ne ptr %9, null
  br i1 %10, label %15, label %11

11:                                               ; preds = %2
  %12 = call noundef zeroext i1 @_ZNK4llvm8MCSymbol10isVariableEv(ptr noundef nonnull align 8 dereferenceable(32) %7)
  br i1 %12, label %13, label %15

13:                                               ; preds = %11
  %14 = call noundef zeroext i1 @_ZNK4llvm8MCSymbol14isWeakExternalEv(ptr noundef nonnull align 8 dereferenceable(32) %7)
  br i1 %14, label %15, label %18

15:                                               ; preds = %13, %11, %2
  %16 = getelementptr inbounds nuw %"class.llvm::MCSymbol", ptr %7, i32 0, i32 0
  %17 = load ptr, ptr %16, align 8
  store ptr %17, ptr %3, align 8
  br label %26

18:                                               ; preds = %13
  %19 = load i8, ptr %5, align 1
  %20 = trunc i8 %19 to i1
  %21 = call noundef ptr @_ZNK4llvm8MCSymbol16getVariableValueEb(ptr noundef nonnull align 8 dereferenceable(32) %7, i1 noundef zeroext %20)
  %22 = call noundef ptr @_ZNK4llvm6MCExpr22findAssociatedFragmentEv(ptr noundef nonnull align 8 dereferenceable(16) %21)
  %23 = getelementptr inbounds nuw %"class.llvm::MCSymbol", ptr %7, i32 0, i32 0
  store ptr %22, ptr %23, align 8
  %24 = getelementptr inbounds nuw %"class.llvm::MCSymbol", ptr %7, i32 0, i32 0
  %25 = load ptr, ptr %24, align 8
  store ptr %25, ptr %3, align 8
  br label %26

26:                                               ; preds = %18, %15
  %27 = load ptr, ptr %3, align 8
  ret ptr %27
}

; Function Attrs: mustprogress nounwind uwtable
define linkonce_odr hidden noundef nonnull align 8 dereferenceable(32) ptr @_ZNK4llvm15MCSymbolRefExpr9getSymbolEv(ptr noundef nonnull align 8 dereferenceable(24) %0) #1 comdat align 2 {
  %2 = alloca ptr, align 8
  store ptr %0, ptr %2, align 8
  %3 = load ptr, ptr %2, align 8
  %4 = getelementptr inbounds nuw %"class.llvm::MCSymbolRefExpr", ptr %3, i32 0, i32 1
  %5 = load ptr, ptr %4, align 8
  ret ptr %5
}

; Function Attrs: mustprogress nounwind uwtable
define linkonce_odr hidden noundef ptr @_ZN4llvm4castINS_15MCSymbolRefExprEKNS_6MCExprEEEDcPT0_(ptr noundef %0) #1 comdat {
  %2 = alloca ptr, align 8
  store ptr %0, ptr %2, align 8
  %3 = call noundef ptr @_ZN4llvm8CastInfoINS_15MCSymbolRefExprEPKNS_6MCExprEvE6doCastERKS4_(ptr noundef nonnull align 8 dereferenceable(8) %2)
  ret ptr %3
}

; Function Attrs: mustprogress nounwind uwtable
define linkonce_odr hidden noundef ptr @_ZN4llvm4castINS_12MCTargetExprEKNS_6MCExprEEEDcPT0_(ptr noundef %0) #1 comdat {
  %2 = alloca ptr, align 8
  store ptr %0, ptr %2, align 8
  %3 = call noundef ptr @_ZN4llvm8CastInfoINS_12MCTargetExprEPKNS_6MCExprEvE6doCastERKS4_(ptr noundef nonnull align 8 dereferenceable(8) %2)
  ret ptr %3
}

; Function Attrs: mustprogress nounwind uwtable
define linkonce_odr hidden noundef zeroext i8 @_ZNK4llvm6MCExpr7getKindEv(ptr noundef nonnull align 8 dereferenceable(16) %0) #1 comdat align 2 {
  %2 = alloca ptr, align 8
  store ptr %0, ptr %2, align 8
  %3 = load ptr, ptr %2, align 8
  %4 = getelementptr inbounds nuw %"class.llvm::MCExpr", ptr %3, i32 0, i32 0
  %5 = load i8, ptr %4, align 8
  ret i8 %5
}

; Function Attrs: mustprogress nounwind uwtable
define dso_local noundef ptr @_ZNK4llvm6MCExpr22findAssociatedFragmentEv(ptr noundef nonnull align 8 dereferenceable(16) %0) #1 align 2 {
  %2 = alloca ptr, align 8
  %3 = alloca ptr, align 8
  %4 = alloca ptr, align 8
  %5 = alloca ptr, align 8
  %6 = alloca ptr, align 8
  %7 = alloca ptr, align 8
  %8 = alloca ptr, align 8
  store ptr %0, ptr %3, align 8
  %9 = load ptr, ptr %3, align 8
  %10 = call noundef zeroext i8 @_ZNK4llvm6MCExpr7getKindEv(ptr noundef nonnull align 8 dereferenceable(16) %9)
  %11 = zext i8 %10 to i32
  switch i32 %11, label %64 [
    i32 4, label %12
    i32 1, label %18
    i32 2, label %20
    i32 3, label %26
    i32 0, label %30
  ]

12:                                               ; preds = %1
  %13 = call noundef ptr @_ZN4llvm4castINS_12MCTargetExprEKNS_6MCExprEEEDcPT0_(ptr noundef %9)
  %14 = load ptr, ptr %13, align 8
  %15 = getelementptr inbounds ptr, ptr %14, i64 8
  %16 = load ptr, ptr %15, align 8
  %17 = call noundef ptr %16(ptr noundef nonnull align 8 dereferenceable(24) %13)
  store ptr %17, ptr %2, align 8
  br label %65

18:                                               ; preds = %1
  %19 = load ptr, ptr @_ZN4llvm8MCSymbol22AbsolutePseudoFragmentE, align 8
  store ptr %19, ptr %2, align 8
  br label %65

20:                                               ; preds = %1
  %21 = call noundef ptr @_ZN4llvm4castINS_15MCSymbolRefExprEKNS_6MCExprEEEDcPT0_(ptr noundef %9)
  store ptr %21, ptr %4, align 8
  %22 = load ptr, ptr %4, align 8
  %23 = call noundef nonnull align 8 dereferenceable(32) ptr @_ZNK4llvm15MCSymbolRefExpr9getSymbolEv(ptr noundef nonnull align 8 dereferenceable(24) %22)
  store ptr %23, ptr %5, align 8
  %24 = load ptr, ptr %5, align 8
  %25 = call noundef ptr @_ZNK4llvm8MCSymbol11getFragmentEb(ptr noundef nonnull align 8 dereferenceable(32) %24, i1 noundef zeroext true)
  store ptr %25, ptr %2, align 8
  br label %65

26:                                               ; preds = %1
  %27 = call noundef ptr @_ZN4llvm4castINS_11MCUnaryExprEKNS_6MCExprEEEDcPT0_(ptr noundef %9)
  %28 = call noundef ptr @_ZNK4llvm11MCUnaryExpr10getSubExprEv(ptr noundef nonnull align 8 dereferenceable(24) %27)
  %29 = call noundef ptr @_ZNK4llvm6MCExpr22findAssociatedFragmentEv(ptr noundef nonnull align 8 dereferenceable(16) %28)
  store ptr %29, ptr %2, align 8
  br label %65

30:                                               ; preds = %1
  %31 = call noundef ptr @_ZN4llvm4castINS_12MCBinaryExprEKNS_6MCExprEEEDcPT0_(ptr noundef %9)
  store ptr %31, ptr %6, align 8
  %32 = load ptr, ptr %6, align 8
  %33 = call noundef ptr @_ZNK4llvm12MCBinaryExpr6getLHSEv(ptr noundef nonnull align 8 dereferenceable(32) %32)
  %34 = call noundef ptr @_ZNK4llvm6MCExpr22findAssociatedFragmentEv(ptr noundef nonnull align 8 dereferenceable(16) %33)
  store ptr %34, ptr %7, align 8
  %35 = load ptr, ptr %6, align 8
  %36 = call noundef ptr @_ZNK4llvm12MCBinaryExpr6getRHSEv(ptr noundef nonnull align 8 dereferenceable(32) %35)
  %37 = call noundef ptr @_ZNK4llvm6MCExpr22findAssociatedFragmentEv(ptr noundef nonnull align 8 dereferenceable(16) %36)
  store ptr %37, ptr %8, align 8
  %38 = load ptr, ptr %7, align 8
  %39 = load ptr, ptr @_ZN4llvm8MCSymbol22AbsolutePseudoFragmentE, align 8
  %40 = icmp eq ptr %38, %39
  br i1 %40, label %41, label %43

41:                                               ; preds = %30
  %42 = load ptr, ptr %8, align 8
  store ptr %42, ptr %2, align 8
  br label %65

43:                                               ; preds = %30
  %44 = load ptr, ptr %8, align 8
  %45 = load ptr, ptr @_ZN4llvm8MCSymbol22AbsolutePseudoFragmentE, align 8
  %46 = icmp eq ptr %44, %45
  br i1 %46, label %47, label %49

47:                                               ; preds = %43
  %48 = load ptr, ptr %7, align 8
  store ptr %48, ptr %2, align 8
  br label %65

49:                                               ; preds = %43
  %50 = load ptr, ptr %6, align 8
  %51 = call noundef i32 @_ZNK4llvm12MCBinaryExpr9getOpcodeEv(ptr noundef nonnull align 8 dereferenceable(32) %50)
  %52 = icmp eq i32 %51, 18
  br i1 %52, label %53, label %55

53:                                               ; preds = %49
  %54 = load ptr, ptr @_ZN4llvm8MCSymbol22AbsolutePseudoFragmentE, align 8
  store ptr %54, ptr %2, align 8
  br label %65

55:                                               ; preds = %49
  %56 = load ptr, ptr %7, align 8
  %57 = icmp ne ptr %56, null
  br i1 %57, label %58, label %60

58:                                               ; preds = %55
  %59 = load ptr, ptr %7, align 8
  br label %62

60:                                               ; preds = %55
  %61 = load ptr, ptr %8, align 8
  br label %62

62:                                               ; preds = %60, %58
  %63 = phi ptr [ %59, %58 ], [ %61, %60 ]
  store ptr %63, ptr %2, align 8
  br label %65

64:                                               ; preds = %1
  unreachable

65:                                               ; preds = %62, %53, %47, %41, %26, %20, %18, %12
  %66 = load ptr, ptr %2, align 8
  ret ptr %66
}