; Function Attrs: mustprogress nounwind uwtable
define dso_local noundef ptr @_ZNK4llvm6MCExpr22findAssociatedFragmentEv(ptr noundef nonnull align 8 dereferenceable(16) %0) local_unnamed_addr #0 align 2 {
  br label %tailrecurse

tailrecurse:                                      ; preds = %24, %1
  %.tr = phi ptr [ %0, %1 ], [ %26, %24 ]
  %2 = load i8, ptr %.tr, align 8
  switch i8 %2, label %45 [
    i8 4, label %3
    i8 1, label %9
    i8 2, label %11
    i8 3, label %24
    i8 0, label %27
  ]

3:                                                ; preds = %tailrecurse
  %4 = getelementptr inbounds i8, ptr %.tr, i64 -8
  %5 = load ptr, ptr %4, align 8
  %6 = getelementptr inbounds i8, ptr %5, i64 64
  %7 = load ptr, ptr %6, align 8
  %8 = tail call noundef ptr %7(ptr noundef nonnull align 8 dereferenceable(24) %4) #13
  br label %common.ret42

9:                                                ; preds = %tailrecurse
  %10 = load ptr, ptr @_ZN4llvm8MCSymbol22AbsolutePseudoFragmentE, align 8
  br label %common.ret42

11:                                               ; preds = %tailrecurse
  %12 = getelementptr inbounds nuw i8, ptr %.tr, i64 16
  %13 = load ptr, ptr %12, align 8
  %14 = load ptr, ptr %13, align 8
  %.not.i = icmp eq ptr %14, null
  br i1 %.not.i, label %15, label %common.ret42

15:                                               ; preds = %11
  %16 = getelementptr inbounds nuw i8, ptr %13, i64 8
  %17 = load i64, ptr %16, align 8
  %18 = and i64 %17, 28800
  %or.cond.not = icmp eq i64 %18, 8192
  br i1 %or.cond.not, label %19, label %common.ret42

common.ret42:                                     ; preds = %38, %15, %11, %36, %27, %43, %9, %3, %19
  %common.ret42.op = phi ptr [ %23, %19 ], [ %44, %43 ], [ %10, %9 ], [ %8, %3 ], [ %33, %27 ], [ %30, %36 ], [ null, %15 ], [ %14, %11 ], [ %34, %38 ]
  ret ptr %common.ret42.op

19:                                               ; preds = %15
  %20 = or i64 %17, 8
  store i64 %20, ptr %16, align 8
  %21 = getelementptr inbounds nuw i8, ptr %13, i64 24
  %22 = load ptr, ptr %21, align 8
  %23 = tail call noundef ptr @_ZNK4llvm6MCExpr22findAssociatedFragmentEv(ptr noundef nonnull align 8 dereferenceable(16) %22)
  store ptr %23, ptr %13, align 8
  br label %common.ret42

24:                                               ; preds = %tailrecurse
  %25 = getelementptr inbounds nuw i8, ptr %.tr, i64 16
  %26 = load ptr, ptr %25, align 8
  br label %tailrecurse

27:                                               ; preds = %tailrecurse
  %28 = getelementptr inbounds nuw i8, ptr %.tr, i64 16
  %29 = load ptr, ptr %28, align 8
  %30 = tail call noundef ptr @_ZNK4llvm6MCExpr22findAssociatedFragmentEv(ptr noundef nonnull align 8 dereferenceable(16) %29)
  %31 = getelementptr inbounds nuw i8, ptr %.tr, i64 24
  %32 = load ptr, ptr %31, align 8
  %33 = tail call noundef ptr @_ZNK4llvm6MCExpr22findAssociatedFragmentEv(ptr noundef nonnull align 8 dereferenceable(16) %32)
  %34 = load ptr, ptr @_ZN4llvm8MCSymbol22AbsolutePseudoFragmentE, align 8
  %35 = icmp eq ptr %30, %34
  br i1 %35, label %common.ret42, label %36

36:                                               ; preds = %27
  %37 = icmp eq ptr %33, %34
  br i1 %37, label %common.ret42, label %38

38:                                               ; preds = %36
  %39 = getelementptr inbounds nuw i8, ptr %.tr, i64 1
  %40 = load i32, ptr %39, align 1
  %41 = and i32 %40, 16777215
  %42 = icmp eq i32 %41, 18
  br i1 %42, label %common.ret42, label %43

43:                                               ; preds = %38
  %.not = icmp eq ptr %30, null
  %44 = select i1 %.not, ptr %33, ptr %30
  br label %common.ret42

45:                                               ; preds = %tailrecurse
  unreachable
}